; Function Attrs: mustprogress nofree nounwind uwtable
define internal noundef i64 @_ZN4absl13time_internal4cctz12_GLOBAL__N_118FileZoneInfoSource4ReadEPvm(ptr noundef nonnull align 8 captures(none) dereferenceable(32) %0, ptr noundef captures(none) %1, i64 noundef %2) unnamed_addr #19 align 2 {
  %4 = getelementptr inbounds nuw i8, ptr %0, i64 24
  %5 = load i64, ptr %4, align 8, !tbaa !74
  %.sroa.speculated = tail call i64 @llvm.umin.i64(i64 %5, i64 %2)
  %6 = getelementptr inbounds nuw i8, ptr %0, i64 16
  %7 = load ptr, ptr %6, align 8, !tbaa !267
  %8 = tail call i64 @fread(ptr noundef %1, i64 noundef 1, i64 noundef %.sroa.speculated, ptr noundef %7)
  %9 = load i64, ptr %4, align 8, !tbaa !269
  %10 = sub i64 %9, %8
  store i64 %10, ptr %4, align 8, !tbaa !269
  ret i64 %8
}